; Function Attrs: nounwind uwtable
define void @Wln_ReadNdrTest() local_unnamed_addr #0 {
  %1 = tail call fastcc ptr @Ndr_Read(ptr noundef nonnull @.str.17)
  %.not.i = icmp eq ptr %1, null
  br i1 %.not.i, label %Wln_ReadNdr.exit, label %2

2:                                                ; preds = %0
  %3 = tail call ptr @Wln_NtkFromNdr(ptr noundef nonnull %1, i32 poison)
  %4 = icmp eq ptr %3, null
  br i1 %4, label %.critedge.i, label %Wln_ReadNdr.exit

.critedge.i:                                      ; preds = %2
  %5 = getelementptr inbounds nuw i8, ptr %1, i64 8
  %6 = load ptr, ptr %5, align 8, !tbaa !11
  tail call void @free(ptr noundef %6) #21
  %7 = getelementptr inbounds nuw i8, ptr %1, i64 16
  %8 = load ptr, ptr %7, align 8, !tbaa !12
  tail call void @free(ptr noundef %8) #21
  tail call void @free(ptr noundef nonnull %1) #21
  br label %Wln_ReadNdr.exit

Wln_ReadNdr.exit:                                 ; preds = %0, %2, %.critedge.i
  tail call void @Wln_WriteVer(ptr noundef null, ptr noundef nonnull @.str.18) #21
  tail call void @Wln_NtkPrint(ptr noundef null) #21
  tail call void @Wln_NtkStaticFanoutTest(ptr noundef null) #21
  tail call void @Wln_NtkFree(ptr noundef null) #21
  ret void
}